target datalayout = "e-m:e-p270:32:32-p271:32:32-p272:64:64-i64:64-i128:128-f80:128-n8:16:32:64-S128"
target triple = "x86_64-pc-linux-gnu"

%struct.MatchState = type { i32, ptr, ptr, ptr, ptr, i32, [32 x %struct.anon] }
%struct.anon = type { ptr, i64 }

@.str.24 = private unnamed_addr constant [18 x i8] c"too many captures\00", align 1
@.str.30 = private unnamed_addr constant [22 x i8] c"invalid capture index\00", align 1
@.str.31 = private unnamed_addr constant [19 x i8] c"unfinished capture\00", align 1

; Function Attrs: mustprogress uwtable
define internal void @_ZL15push_onecaptureP10MatchStateiPKcS2_(ptr noundef %0, i32 noundef %1, ptr noundef %2, ptr noundef %3) #2 {
  %5 = alloca ptr, align 8
  %6 = alloca i32, align 4
  %7 = alloca ptr, align 8
  %8 = alloca ptr, align 8
  %9 = alloca i64, align 8
  store ptr %0, ptr %5, align 8, !tbaa !59
  store i32 %1, ptr %6, align 4, !tbaa !24
  store ptr %2, ptr %7, align 8, !tbaa !9
  store ptr %3, ptr %8, align 8, !tbaa !9
  %10 = load i32, ptr %6, align 4, !tbaa !24
  %11 = load ptr, ptr %5, align 8, !tbaa !59
  %12 = getelementptr inbounds nuw %struct.MatchState, ptr %11, i32 0, i32 5
  %13 = load i32, ptr %12, align 8, !tbaa !65
  %14 = icmp sge i32 %10, %13
  br i1 %14, label %15, label %33

15:                                               ; preds = %4
  %16 = load i32, ptr %6, align 4, !tbaa !24
  %17 = icmp eq i32 %16, 0
  br i1 %17, label %18, label %28

18:                                               ; preds = %15
  %19 = load ptr, ptr %5, align 8, !tbaa !59
  %20 = getelementptr inbounds nuw %struct.MatchState, ptr %19, i32 0, i32 4
  %21 = load ptr, ptr %20, align 8, !tbaa !61
  %22 = load ptr, ptr %7, align 8, !tbaa !9
  %23 = load ptr, ptr %8, align 8, !tbaa !9
  %24 = load ptr, ptr %7, align 8, !tbaa !9
  %25 = ptrtoint ptr %23 to i64
  %26 = ptrtoint ptr %24 to i64
  %27 = sub i64 %25, %26
  call void @_Z15lua_pushlstringP9lua_StatePKcm(ptr noundef %21, ptr noundef %22, i64 noundef %27)
  br label %32

28:                                               ; preds = %15
  %29 = load ptr, ptr %5, align 8, !tbaa !59
  %30 = getelementptr inbounds nuw %struct.MatchState, ptr %29, i32 0, i32 4
  %31 = load ptr, ptr %30, align 8, !tbaa !61
  call void (ptr, ptr, ...) @_Z11luaL_errorLP9lua_StatePKcz(ptr noundef %31, ptr noundef @.str.30) #14
  unreachable

32:                                               ; preds = %18
  br label %82

33:                                               ; preds = %4
  call void @llvm.lifetime.start.p0(i64 8, ptr %9) #13
  %34 = load ptr, ptr %5, align 8, !tbaa !59
  %35 = getelementptr inbounds nuw %struct.MatchState, ptr %34, i32 0, i32 6
  %36 = load i32, ptr %6, align 4, !tbaa !24
  %37 = sext i32 %36 to i64
  %38 = getelementptr inbounds [32 x %struct.anon], ptr %35, i64 0, i64 %37
  %39 = getelementptr inbounds nuw %struct.anon, ptr %38, i32 0, i32 1
  %40 = load i64, ptr %39, align 8, !tbaa !92
  store i64 %40, ptr %9, align 8, !tbaa !22
  %41 = load i64, ptr %9, align 8, !tbaa !22
  %42 = icmp eq i64 %41, -1
  br i1 %42, label %43, label %47

43:                                               ; preds = %33
  %44 = load ptr, ptr %5, align 8, !tbaa !59
  %45 = getelementptr inbounds nuw %struct.MatchState, ptr %44, i32 0, i32 4
  %46 = load ptr, ptr %45, align 8, !tbaa !61
  call void (ptr, ptr, ...) @_Z11luaL_errorLP9lua_StatePKcz(ptr noundef %46, ptr noundef @.str.31) #14
  unreachable

47:                                               ; preds = %33
  %48 = load i64, ptr %9, align 8, !tbaa !22
  %49 = icmp eq i64 %48, -2
  br i1 %49, label %50, label %69

50:                                               ; preds = %47
  %51 = load ptr, ptr %5, align 8, !tbaa !59
  %52 = getelementptr inbounds nuw %struct.MatchState, ptr %51, i32 0, i32 4
  %53 = load ptr, ptr %52, align 8, !tbaa !61
  %54 = load ptr, ptr %5, align 8, !tbaa !59
  %55 = getelementptr inbounds nuw %struct.MatchState, ptr %54, i32 0, i32 6
  %56 = load i32, ptr %6, align 4, !tbaa !24
  %57 = sext i32 %56 to i64
  %58 = getelementptr inbounds [32 x %struct.anon], ptr %55, i64 0, i64 %57
  %59 = getelementptr inbounds nuw %struct.anon, ptr %58, i32 0, i32 0
  %60 = load ptr, ptr %59, align 8, !tbaa !90
  %61 = load ptr, ptr %5, align 8, !tbaa !59
  %62 = getelementptr inbounds nuw %struct.MatchState, ptr %61, i32 0, i32 1
  %63 = load ptr, ptr %62, align 8, !tbaa !63
  %64 = ptrtoint ptr %60 to i64
  %65 = ptrtoint ptr %63 to i64
  %66 = sub i64 %64, %65
  %67 = trunc i64 %66 to i32
  %68 = add nsw i32 %67, 1
  call void @_Z15lua_pushintegerP9lua_Statei(ptr noundef %53, i32 noundef %68)
  br label %81

69:                                               ; preds = %47
  %70 = load ptr, ptr %5, align 8, !tbaa !59
  %71 = getelementptr inbounds nuw %struct.MatchState, ptr %70, i32 0, i32 4
  %72 = load ptr, ptr %71, align 8, !tbaa !61
  %73 = load ptr, ptr %5, align 8, !tbaa !59
  %74 = getelementptr inbounds nuw %struct.MatchState, ptr %73, i32 0, i32 6
  %75 = load i32, ptr %6, align 4, !tbaa !24
  %76 = sext i32 %75 to i64
  %77 = getelementptr inbounds [32 x %struct.anon], ptr %74, i64 0, i64 %76
  %78 = getelementptr inbounds nuw %struct.anon, ptr %77, i32 0, i32 0
  %79 = load ptr, ptr %78, align 8, !tbaa !90
  %80 = load i64, ptr %9, align 8, !tbaa !22
  call void @_Z15lua_pushlstringP9lua_StatePKcm(ptr noundef %72, ptr noundef %79, i64 noundef %80)
  br label %81

81:                                               ; preds = %69, %50
  call void @llvm.lifetime.end.p0(i64 8, ptr %9) #13
  br label %82

82:                                               ; preds = %81, %32
  ret void
}

; Function Attrs: mustprogress uwtable
define internal noundef i32 @_ZL13push_capturesP10MatchStatePKcS2_(ptr noundef %0, ptr noundef %1, ptr noundef %2) #2 {
  %4 = alloca ptr, align 8
  %5 = alloca ptr, align 8
  %6 = alloca ptr, align 8
  %7 = alloca i32, align 4
  %8 = alloca i32, align 4
  store ptr %0, ptr %4, align 8, !tbaa !59
  store ptr %1, ptr %5, align 8, !tbaa !9
  store ptr %2, ptr %6, align 8, !tbaa !9
  call void @llvm.lifetime.start.p0(i64 4, ptr %7) #13
  call void @llvm.lifetime.start.p0(i64 4, ptr %8) #13
  %9 = load ptr, ptr %4, align 8, !tbaa !59
  %10 = getelementptr inbounds nuw %struct.MatchState, ptr %9, i32 0, i32 5
  %11 = load i32, ptr %10, align 8, !tbaa !65
  %12 = icmp eq i32 %11, 0
  br i1 %12, label %13, label %17

13:                                               ; preds = %3
  %14 = load ptr, ptr %5, align 8, !tbaa !9
  %15 = icmp ne ptr %14, null
  br i1 %15, label %16, label %17

16:                                               ; preds = %13
  br label %21

17:                                               ; preds = %13, %3
  %18 = load ptr, ptr %4, align 8, !tbaa !59
  %19 = getelementptr inbounds nuw %struct.MatchState, ptr %18, i32 0, i32 5
  %20 = load i32, ptr %19, align 8, !tbaa !65
  br label %21

21:                                               ; preds = %17, %16
  %22 = phi i32 [ 1, %16 ], [ %20, %17 ]
  store i32 %22, ptr %8, align 4, !tbaa !24
  %23 = load ptr, ptr %4, align 8, !tbaa !59
  %24 = getelementptr inbounds nuw %struct.MatchState, ptr %23, i32 0, i32 4
  %25 = load ptr, ptr %24, align 8, !tbaa !61
  %26 = load i32, ptr %8, align 4, !tbaa !24
  call void @_Z15luaL_checkstackP9lua_StateiPKc(ptr noundef %25, i32 noundef %26, ptr noundef @.str.24)
  store i32 0, ptr %7, align 4, !tbaa !24
  br label %27

27:                                               ; preds = %36, %21
  %28 = load i32, ptr %7, align 4, !tbaa !24
  %29 = load i32, ptr %8, align 4, !tbaa !24
  %30 = icmp slt i32 %28, %29
  br i1 %30, label %31, label %39

31:                                               ; preds = %27
  %32 = load ptr, ptr %4, align 8, !tbaa !59
  %33 = load i32, ptr %7, align 4, !tbaa !24
  %34 = load ptr, ptr %5, align 8, !tbaa !9
  %35 = load ptr, ptr %6, align 8, !tbaa !9
  call void @_ZL15push_onecaptureP10MatchStateiPKcS2_(ptr noundef %32, i32 noundef %33, ptr noundef %34, ptr noundef %35)
  br label %36

36:                                               ; preds = %31
  %37 = load i32, ptr %7, align 4, !tbaa !24
  %38 = add nsw i32 %37, 1
  store i32 %38, ptr %7, align 4, !tbaa !24
  br label %27, !llvm.loop !89

39:                                               ; preds = %27
  %40 = load i32, ptr %8, align 4, !tbaa !24
  call void @llvm.lifetime.end.p0(i64 4, ptr %8) #13
  call void @llvm.lifetime.end.p0(i64 4, ptr %7) #13
  ret i32 %40
}

; Function Attrs: mustprogress nounwind uwtable
define internal void @_ZL11reprepstateP10MatchState(ptr noundef %0) #1 {
  %2 = alloca ptr, align 8
  store ptr %0, ptr %2, align 8, !tbaa !59
  %3 = load ptr, ptr %2, align 8, !tbaa !59
  %4 = getelementptr inbounds nuw %struct.MatchState, ptr %3, i32 0, i32 5
  store i32 0, ptr %4, align 8, !tbaa !65
  ret void
}

; Function Attrs: mustprogress nounwind uwtable
define internal void @_ZL9prepstateP10MatchStateP9lua_StatePKcmS4_m(ptr noundef %0, ptr noundef %1, ptr noundef %2, i64 noundef %3, ptr noundef %4, i64 noundef %5) #1 {
  %7 = alloca ptr, align 8
  %8 = alloca ptr, align 8
  %9 = alloca ptr, align 8
  %10 = alloca i64, align 8
  %11 = alloca ptr, align 8
  %12 = alloca i64, align 8
  store ptr %0, ptr %7, align 8, !tbaa !59
  store ptr %1, ptr %8, align 8, !tbaa !20
  store ptr %2, ptr %9, align 8, !tbaa !9
  store i64 %3, ptr %10, align 8, !tbaa !22
  store ptr %4, ptr %11, align 8, !tbaa !9
  store i64 %5, ptr %12, align 8, !tbaa !22
  %13 = load ptr, ptr %8, align 8, !tbaa !20
  %14 = load ptr, ptr %7, align 8, !tbaa !59
  %15 = getelementptr inbounds nuw %struct.MatchState, ptr %14, i32 0, i32 4
  store ptr %13, ptr %15, align 8, !tbaa !61
  %16 = load ptr, ptr %7, align 8, !tbaa !59
  %17 = getelementptr inbounds nuw %struct.MatchState, ptr %16, i32 0, i32 0
  store i32 200, ptr %17, align 8, !tbaa !62
  %18 = load ptr, ptr %9, align 8, !tbaa !9
  %19 = load ptr, ptr %7, align 8, !tbaa !59
  %20 = getelementptr inbounds nuw %struct.MatchState, ptr %19, i32 0, i32 1
  store ptr %18, ptr %20, align 8, !tbaa !63
  %21 = load ptr, ptr %9, align 8, !tbaa !9
  %22 = load i64, ptr %10, align 8, !tbaa !22
  %23 = getelementptr inbounds nuw i8, ptr %21, i64 %22
  %24 = load ptr, ptr %7, align 8, !tbaa !59
  %25 = getelementptr inbounds nuw %struct.MatchState, ptr %24, i32 0, i32 2
  store ptr %23, ptr %25, align 8, !tbaa !39
  %26 = load ptr, ptr %11, align 8, !tbaa !9
  %27 = load i64, ptr %12, align 8, !tbaa !22
  %28 = getelementptr inbounds nuw i8, ptr %26, i64 %27
  %29 = load ptr, ptr %7, align 8, !tbaa !59
  %30 = getelementptr inbounds nuw %struct.MatchState, ptr %29, i32 0, i32 3
  store ptr %28, ptr %30, align 8, !tbaa !64
  ret void
}

; Function Attrs: mustprogress uwtable
define internal noundef i32 @_ZL10gmatch_auxP9lua_State(ptr noundef %0) #2 {
  %2 = alloca i32, align 4
  %3 = alloca ptr, align 8
  %4 = alloca %struct.MatchState, align 8
  %5 = alloca i64, align 8
  %6 = alloca i64, align 8
  %7 = alloca ptr, align 8
  %8 = alloca ptr, align 8
  %9 = alloca ptr, align 8
  %10 = alloca ptr, align 8
  %11 = alloca i32, align 4
  %12 = alloca i32, align 4
  store ptr %0, ptr %3, align 8, !tbaa !20
  call void @llvm.lifetime.start.p0(i64 560, ptr %4) #13
  call void @llvm.lifetime.start.p0(i64 8, ptr %5) #13
  call void @llvm.lifetime.start.p0(i64 8, ptr %6) #13
  call void @llvm.lifetime.start.p0(i64 8, ptr %7) #13
  %13 = load ptr, ptr %3, align 8, !tbaa !20
  %14 = call noundef ptr @_Z13lua_tolstringP9lua_StateiPm(ptr noundef %13, i32 noundef -10003, ptr noundef %5)
  store ptr %14, ptr %7, align 8, !tbaa !9
  call void @llvm.lifetime.start.p0(i64 8, ptr %8) #13
  %15 = load ptr, ptr %3, align 8, !tbaa !20
  %16 = call noundef ptr @_Z13lua_tolstringP9lua_StateiPm(ptr noundef %15, i32 noundef -10004, ptr noundef %6)
  store ptr %16, ptr %8, align 8, !tbaa !9
  call void @llvm.lifetime.start.p0(i64 8, ptr %9) #13
  %17 = load ptr, ptr %3, align 8, !tbaa !20
  %18 = load ptr, ptr %7, align 8, !tbaa !9
  %19 = load i64, ptr %5, align 8, !tbaa !22
  %20 = load ptr, ptr %8, align 8, !tbaa !9
  %21 = load i64, ptr %6, align 8, !tbaa !22
  call void @_ZL9prepstateP10MatchStateP9lua_StatePKcmS4_m(ptr noundef %4, ptr noundef %17, ptr noundef %18, i64 noundef %19, ptr noundef %20, i64 noundef %21)
  %22 = load ptr, ptr %7, align 8, !tbaa !9
  %23 = load ptr, ptr %3, align 8, !tbaa !20
  %24 = call noundef i32 @_Z14lua_tointegerxP9lua_StateiPi(ptr noundef %23, i32 noundef -10005, ptr noundef null)
  %25 = sext i32 %24 to i64
  %26 = getelementptr inbounds nuw i8, ptr %22, i64 %25
  store ptr %26, ptr %9, align 8, !tbaa !9
  br label %27

27:                                               ; preds = %61, %1
  %28 = load ptr, ptr %9, align 8, !tbaa !9
  %29 = getelementptr inbounds nuw %struct.MatchState, ptr %4, i32 0, i32 2
  %30 = load ptr, ptr %29, align 8, !tbaa !39
  %31 = icmp ule ptr %28, %30
  br i1 %31, label %32, label %64

32:                                               ; preds = %27
  call void @llvm.lifetime.start.p0(i64 8, ptr %10) #13
  call void @_ZL11reprepstateP10MatchState(ptr noundef %4)
  %33 = load ptr, ptr %9, align 8, !tbaa !9
  %34 = load ptr, ptr %8, align 8, !tbaa !9
  %35 = call noundef ptr @_ZL5matchP10MatchStatePKcS2_(ptr noundef %4, ptr noundef %33, ptr noundef %34)
  store ptr %35, ptr %10, align 8, !tbaa !9
  %36 = icmp ne ptr %35, null
  br i1 %36, label %37, label %57

37:                                               ; preds = %32
  call void @llvm.lifetime.start.p0(i64 4, ptr %11) #13
  %38 = load ptr, ptr %10, align 8, !tbaa !9
  %39 = load ptr, ptr %7, align 8, !tbaa !9
  %40 = ptrtoint ptr %38 to i64
  %41 = ptrtoint ptr %39 to i64
  %42 = sub i64 %40, %41
  %43 = trunc i64 %42 to i32
  store i32 %43, ptr %11, align 4, !tbaa !24
  %44 = load ptr, ptr %10, align 8, !tbaa !9
  %45 = load ptr, ptr %9, align 8, !tbaa !9
  %46 = icmp eq ptr %44, %45
  br i1 %46, label %47, label %50

47:                                               ; preds = %37
  %48 = load i32, ptr %11, align 4, !tbaa !24
  %49 = add nsw i32 %48, 1
  store i32 %49, ptr %11, align 4, !tbaa !24
  br label %50

50:                                               ; preds = %47, %37
  %51 = load ptr, ptr %3, align 8, !tbaa !20
  %52 = load i32, ptr %11, align 4, !tbaa !24
  call void @_Z15lua_pushintegerP9lua_Statei(ptr noundef %51, i32 noundef %52)
  %53 = load ptr, ptr %3, align 8, !tbaa !20
  call void @_Z11lua_replaceP9lua_Statei(ptr noundef %53, i32 noundef -10005)
  %54 = load ptr, ptr %9, align 8, !tbaa !9
  %55 = load ptr, ptr %10, align 8, !tbaa !9
  %56 = call noundef i32 @_ZL13push_capturesP10MatchStatePKcS2_(ptr noundef %4, ptr noundef %54, ptr noundef %55)
  store i32 %56, ptr %2, align 4
  store i32 1, ptr %12, align 4
  call void @llvm.lifetime.end.p0(i64 4, ptr %11) #13
  br label %58

57:                                               ; preds = %32
  store i32 0, ptr %12, align 4
  br label %58

58:                                               ; preds = %57, %50
  call void @llvm.lifetime.end.p0(i64 8, ptr %10) #13
  %59 = load i32, ptr %12, align 4
  switch i32 %59, label %65 [
    i32 0, label %60
  ]

60:                                               ; preds = %58
  br label %61

61:                                               ; preds = %60
  %62 = load ptr, ptr %9, align 8, !tbaa !9
  %63 = getelementptr inbounds nuw i8, ptr %62, i32 1
  store ptr %63, ptr %9, align 8, !tbaa !9
  br label %27, !llvm.loop !111

64:                                               ; preds = %27
  store i32 0, ptr %2, align 4
  store i32 1, ptr %12, align 4
  br label %65

65:                                               ; preds = %64, %58
  call void @llvm.lifetime.end.p0(i64 8, ptr %9) #13
  call void @llvm.lifetime.end.p0(i64 8, ptr %8) #13
  call void @llvm.lifetime.end.p0(i64 8, ptr %7) #13
  call void @llvm.lifetime.end.p0(i64 8, ptr %6) #13
  call void @llvm.lifetime.end.p0(i64 8, ptr %5) #13
  call void @llvm.lifetime.end.p0(i64 560, ptr %4) #13
  %66 = load i32, ptr %2, align 4
  ret i32 %66
}