; Function Attrs: mustprogress uwtable
define internal noundef i32 @_ZL10gmatch_auxP9lua_State(ptr noundef %0) #0 {
  %2 = alloca %struct.MatchState, align 8
  %3 = alloca i64, align 8
  %4 = alloca i64, align 8
  call void @llvm.lifetime.start.p0(i64 560, ptr nonnull %2) #14
  call void @llvm.lifetime.start.p0(i64 8, ptr nonnull %3) #14
  call void @llvm.lifetime.start.p0(i64 8, ptr nonnull %4) #14
  %5 = call noundef ptr @_Z13lua_tolstringP9lua_StateiPm(ptr noundef %0, i32 noundef -10003, ptr noundef nonnull %3)
  %6 = call noundef ptr @_Z13lua_tolstringP9lua_StateiPm(ptr noundef %0, i32 noundef -10004, ptr noundef nonnull %4)
  %7 = load i64, ptr %3, align 8, !tbaa !4
  %8 = load i64, ptr %4, align 8, !tbaa !4
  %9 = getelementptr inbounds nuw i8, ptr %2, i64 32
  store ptr %0, ptr %9, align 8, !tbaa !28
  store i32 200, ptr %2, align 8, !tbaa !31
  %10 = getelementptr inbounds nuw i8, ptr %2, i64 8
  store ptr %5, ptr %10, align 8, !tbaa !32
  %11 = getelementptr inbounds nuw i8, ptr %5, i64 %7
  %12 = getelementptr inbounds nuw i8, ptr %2, i64 16
  store ptr %11, ptr %12, align 8, !tbaa !33
  %13 = getelementptr inbounds nuw i8, ptr %6, i64 %8
  %14 = getelementptr inbounds nuw i8, ptr %2, i64 24
  store ptr %13, ptr %14, align 8, !tbaa !34
  %15 = call noundef i32 @_Z14lua_tointegerxP9lua_StateiPi(ptr noundef %0, i32 noundef -10005, ptr noundef null)
  %16 = sext i32 %15 to i64
  %.not36 = icmp samesign ult i64 %7, %16
  br i1 %.not36, label %_ZL13push_capturesP10MatchStatePKcS2_.exit.thread29, label %.lr.ph

.lr.ph:                                           ; preds = %1
  %17 = getelementptr inbounds nuw i8, ptr %5, i64 %16
  %18 = getelementptr inbounds nuw i8, ptr %2, i64 40
  br label %19

19:                                               ; preds = %.lr.ph, %_ZL13push_capturesP10MatchStatePKcS2_.exit.thread
  %.02437 = phi ptr [ %17, %.lr.ph ], [ %60, %_ZL13push_capturesP10MatchStatePKcS2_.exit.thread ]
  store i32 0, ptr %18, align 8, !tbaa !35
  %20 = call fastcc noundef ptr @_ZL5matchP10MatchStatePKcS2_(ptr noundef %2, ptr noundef %.02437, ptr noundef %6)
  %.not26 = icmp eq ptr %20, null
  br i1 %.not26, label %_ZL13push_capturesP10MatchStatePKcS2_.exit.thread, label %21

21:                                               ; preds = %19
  %22 = ptrtoint ptr %20 to i64
  %23 = ptrtoint ptr %5 to i64
  %24 = sub i64 %22, %23
  %25 = trunc i64 %24 to i32
  %26 = icmp eq ptr %20, %.02437
  %27 = zext i1 %26 to i32
  %spec.select = add nsw i32 %25, %27
  call void @_Z15lua_pushintegerP9lua_Statei(ptr noundef %0, i32 noundef %spec.select)
  call void @_Z11lua_replaceP9lua_Statei(ptr noundef %0, i32 noundef -10005)
  %28 = load i32, ptr %18, align 8, !tbaa !35
  %29 = icmp eq i32 %28, 0
  %30 = icmp ne ptr %.02437, null
  %or.cond.i = and i1 %30, %29
  %spec.select.i = select i1 %or.cond.i, i32 1, i32 %28
  %31 = load ptr, ptr %9, align 8, !tbaa !28
  call void @_Z15luaL_checkstackP9lua_StateiPKc(ptr noundef %31, i32 noundef %spec.select.i, ptr noundef nonnull @.str.24)
  %32 = icmp sgt i32 %spec.select.i, 0
  br i1 %32, label %.lr.ph.i.preheader, label %_ZL13push_capturesP10MatchStatePKcS2_.exit.thread29

.lr.ph.i.preheader:                               ; preds = %21
  %33 = ptrtoint ptr %.02437 to i64
  %34 = sub i64 %22, %33
  %35 = getelementptr inbounds nuw i8, ptr %2, i64 48
  %36 = zext nneg i32 %spec.select.i to i64
  br label %.lr.ph.i

.lr.ph.i:                                         ; preds = %.lr.ph.i.preheader, %_ZL15push_onecaptureP10MatchStateiPKcS2_.exit
  %indvars.iv = phi i64 [ 0, %.lr.ph.i.preheader ], [ %indvars.iv.next, %_ZL15push_onecaptureP10MatchStateiPKcS2_.exit ]
  %37 = load i32, ptr %18, align 8, !tbaa !35
  %38 = sext i32 %37 to i64
  %.not.i = icmp slt i64 %indvars.iv, %38
  br i1 %.not.i, label %44, label %39

39:                                               ; preds = %.lr.ph.i
  %40 = icmp eq i64 %indvars.iv, 0
  %41 = load ptr, ptr %9, align 8, !tbaa !28
  br i1 %40, label %42, label %43

42:                                               ; preds = %39
  call void @_Z15lua_pushlstringP9lua_StatePKcm(ptr noundef %41, ptr noundef %.02437, i64 noundef %34)
  br label %_ZL15push_onecaptureP10MatchStateiPKcS2_.exit

43:                                               ; preds = %39
  call void (ptr, ptr, ...) @_Z11luaL_errorLP9lua_StatePKcz(ptr noundef %41, ptr noundef nonnull @.str.30) #15
  unreachable

44:                                               ; preds = %.lr.ph.i
  %45 = getelementptr inbounds nuw [32 x %struct.anon], ptr %35, i64 0, i64 %indvars.iv
  %46 = getelementptr inbounds nuw i8, ptr %45, i64 8
  %47 = load i64, ptr %46, align 8, !tbaa !36
  %48 = load ptr, ptr %9, align 8, !tbaa !28
  switch i64 %47, label %58 [
    i64 -1, label %49
    i64 -2, label %50
  ]

49:                                               ; preds = %44
  call void (ptr, ptr, ...) @_Z11luaL_errorLP9lua_StatePKcz(ptr noundef %48, ptr noundef nonnull @.str.31) #15
  unreachable

50:                                               ; preds = %44
  %51 = load ptr, ptr %45, align 8, !tbaa !38
  %52 = load ptr, ptr %10, align 8, !tbaa !32
  %53 = ptrtoint ptr %51 to i64
  %54 = ptrtoint ptr %52 to i64
  %55 = sub i64 %53, %54
  %56 = trunc i64 %55 to i32
  %57 = add nsw i32 %56, 1
  call void @_Z15lua_pushintegerP9lua_Statei(ptr noundef %48, i32 noundef %57)
  br label %_ZL15push_onecaptureP10MatchStateiPKcS2_.exit

58:                                               ; preds = %44
  %59 = load ptr, ptr %45, align 8, !tbaa !38
  call void @_Z15lua_pushlstringP9lua_StatePKcm(ptr noundef %48, ptr noundef %59, i64 noundef %47)
  br label %_ZL15push_onecaptureP10MatchStateiPKcS2_.exit

_ZL15push_onecaptureP10MatchStateiPKcS2_.exit:    ; preds = %42, %50, %58
  %indvars.iv.next = add nuw nsw i64 %indvars.iv, 1
  %exitcond.not.i = icmp eq i64 %indvars.iv.next, %36
  br i1 %exitcond.not.i, label %_ZL13push_capturesP10MatchStatePKcS2_.exit.thread29, label %.lr.ph.i, !llvm.loop !39

_ZL13push_capturesP10MatchStatePKcS2_.exit.thread: ; preds = %19
  %60 = getelementptr inbounds nuw i8, ptr %.02437, i64 1
  %61 = load ptr, ptr %12, align 8, !tbaa !33
  %.not = icmp ugt ptr %60, %61
  br i1 %.not, label %_ZL13push_capturesP10MatchStatePKcS2_.exit.thread29, label %19, !llvm.loop !100

_ZL13push_capturesP10MatchStatePKcS2_.exit.thread29: ; preds = %_ZL13push_capturesP10MatchStatePKcS2_.exit.thread, %_ZL15push_onecaptureP10MatchStateiPKcS2_.exit, %1, %21
  %.2 = phi i32 [ %28, %21 ], [ 0, %1 ], [ %spec.select.i, %_ZL15push_onecaptureP10MatchStateiPKcS2_.exit ], [ 0, %_ZL13push_capturesP10MatchStatePKcS2_.exit.thread ]
  call void @llvm.lifetime.end.p0(i64 8, ptr nonnull %4) #14
  call void @llvm.lifetime.end.p0(i64 8, ptr nonnull %3) #14
  call void @llvm.lifetime.end.p0(i64 560, ptr nonnull %2) #14
  ret i32 %.2
}